#include <math.h>
#include <stdio.h>
#include <stdlib.h>
#include <string.h>

int main(int argc, char* argv[])
{
	int a[25],b[25];
	int n,i,j;
	int max=1;
	scanf("%d",&n);
	for(i=0;i<n;i++)
	{
		scanf("%d",&a[i]);
		b[i]=1;
	}
	for(i=0;i<n;i++)
		for(j=0;j<i;j++)
			if((b[i]<=b[j])&&(a[i]<=a[j]))
			{
				b[i]=b[j]+1;
				if(b[i]>max)
					max=b[i];
			}
	printf("%d",max);
	return 0;
}
