; ModuleID = '10/1295.c'
source_filename = "10/1295.c"
target datalayout = "e-m:e-p270:32:32-p271:32:32-p272:64:64-i64:64-f80:128-n8:16:32:64-S128"
target triple = "x86_64-pc-linux-gnu"

@.str = private unnamed_addr constant [3 x i8] c"%d\00", align 1

; Function Attrs: noinline nounwind uwtable
define dso_local i32 @main(i32 %0, i8** %1) #0 {
  %3 = alloca i32, align 4
  %4 = alloca i32, align 4
  %5 = alloca i8**, align 8
  %6 = alloca [25 x i32], align 16
  %7 = alloca [25 x i32], align 16
  %8 = alloca i32, align 4
  %9 = alloca i32, align 4
  %10 = alloca i32, align 4
  %11 = alloca i32, align 4
  store i32 0, i32* %3, align 4
  store i32 %0, i32* %4, align 4
  store i8** %1, i8*** %5, align 8
  store i32 1, i32* %11, align 4
  %12 = call i32 (i8*, ...) @__isoc99_scanf(i8* getelementptr inbounds ([3 x i8], [3 x i8]* @.str, i64 0, i64 0), i32* %8)
  store i32 0, i32* %9, align 4
  br label %13

13:                                               ; preds = %25, %2
  %14 = load i32, i32* %9, align 4
  %15 = load i32, i32* %8, align 4
  %16 = icmp slt i32 %14, %15
  br i1 %16, label %17, label %28

17:                                               ; preds = %13
  %18 = load i32, i32* %9, align 4
  %19 = sext i32 %18 to i64
  %20 = getelementptr inbounds [25 x i32], [25 x i32]* %6, i64 0, i64 %19
  %21 = call i32 (i8*, ...) @__isoc99_scanf(i8* getelementptr inbounds ([3 x i8], [3 x i8]* @.str, i64 0, i64 0), i32* %20)
  %22 = load i32, i32* %9, align 4
  %23 = sext i32 %22 to i64
  %24 = getelementptr inbounds [25 x i32], [25 x i32]* %7, i64 0, i64 %23
  store i32 1, i32* %24, align 4
  br label %25

25:                                               ; preds = %17
  %26 = load i32, i32* %9, align 4
  %27 = add nsw i32 %26, 1
  store i32 %27, i32* %9, align 4
  br label %13

28:                                               ; preds = %13
  store i32 0, i32* %9, align 4
  br label %29

29:                                               ; preds = %84, %28
  %30 = load i32, i32* %9, align 4
  %31 = load i32, i32* %8, align 4
  %32 = icmp slt i32 %30, %31
  br i1 %32, label %33, label %87

33:                                               ; preds = %29
  store i32 0, i32* %10, align 4
  br label %34

34:                                               ; preds = %80, %33
  %35 = load i32, i32* %10, align 4
  %36 = load i32, i32* %9, align 4
  %37 = icmp slt i32 %35, %36
  br i1 %37, label %38, label %83

38:                                               ; preds = %34
  %39 = load i32, i32* %9, align 4
  %40 = sext i32 %39 to i64
  %41 = getelementptr inbounds [25 x i32], [25 x i32]* %7, i64 0, i64 %40
  %42 = load i32, i32* %41, align 4
  %43 = load i32, i32* %10, align 4
  %44 = sext i32 %43 to i64
  %45 = getelementptr inbounds [25 x i32], [25 x i32]* %7, i64 0, i64 %44
  %46 = load i32, i32* %45, align 4
  %47 = icmp sle i32 %42, %46
  br i1 %47, label %48, label %79

48:                                               ; preds = %38
  %49 = load i32, i32* %9, align 4
  %50 = sext i32 %49 to i64
  %51 = getelementptr inbounds [25 x i32], [25 x i32]* %6, i64 0, i64 %50
  %52 = load i32, i32* %51, align 4
  %53 = load i32, i32* %10, align 4
  %54 = sext i32 %53 to i64
  %55 = getelementptr inbounds [25 x i32], [25 x i32]* %6, i64 0, i64 %54
  %56 = load i32, i32* %55, align 4
  %57 = icmp sle i32 %52, %56
  br i1 %57, label %58, label %79

58:                                               ; preds = %48
  %59 = load i32, i32* %10, align 4
  %60 = sext i32 %59 to i64
  %61 = getelementptr inbounds [25 x i32], [25 x i32]* %7, i64 0, i64 %60
  %62 = load i32, i32* %61, align 4
  %63 = add nsw i32 %62, 1
  %64 = load i32, i32* %9, align 4
  %65 = sext i32 %64 to i64
  %66 = getelementptr inbounds [25 x i32], [25 x i32]* %7, i64 0, i64 %65
  store i32 %63, i32* %66, align 4
  %67 = load i32, i32* %9, align 4
  %68 = sext i32 %67 to i64
  %69 = getelementptr inbounds [25 x i32], [25 x i32]* %7, i64 0, i64 %68
  %70 = load i32, i32* %69, align 4
  %71 = load i32, i32* %11, align 4
  %72 = icmp sgt i32 %70, %71
  br i1 %72, label %73, label %78

73:                                               ; preds = %58
  %74 = load i32, i32* %9, align 4
  %75 = sext i32 %74 to i64
  %76 = getelementptr inbounds [25 x i32], [25 x i32]* %7, i64 0, i64 %75
  %77 = load i32, i32* %76, align 4
  store i32 %77, i32* %11, align 4
  br label %78

78:                                               ; preds = %73, %58
  br label %79

79:                                               ; preds = %78, %48, %38
  br label %80

80:                                               ; preds = %79
  %81 = load i32, i32* %10, align 4
  %82 = add nsw i32 %81, 1
  store i32 %82, i32* %10, align 4
  br label %34

83:                                               ; preds = %34
  br label %84

84:                                               ; preds = %83
  %85 = load i32, i32* %9, align 4
  %86 = add nsw i32 %85, 1
  store i32 %86, i32* %9, align 4
  br label %29

87:                                               ; preds = %29
  %88 = load i32, i32* %11, align 4
  %89 = call i32 (i8*, ...) @printf(i8* getelementptr inbounds ([3 x i8], [3 x i8]* @.str, i64 0, i64 0), i32 %88)
  ret i32 0
}

declare dso_local i32 @__isoc99_scanf(i8*, ...) #1

declare dso_local i32 @printf(i8*, ...) #1


!llvm.module.flags = !{!0}
!llvm.ident = !{!1}

!0 = !{i32 1, !"wchar_size", i32 4}
!1 = !{!"clang version 10.0.0-4ubuntu1 "}
